; Function Attrs: mustprogress uwtable
define void @_ZN17ColumnEditorFrame32on_fieldsNameLineEdit_textEditedERK7QString(ptr noundef nonnull align 8 dereferenceable(120) %0, ptr noundef nonnull align 8 dereferenceable(24) %1) local_unnamed_addr #0 align 2 personality ptr @__gxx_personality_v0 {
  %3 = alloca %class.QString, align 8
  %4 = getelementptr inbounds i8, ptr %0, i64 56
  %5 = load ptr, ptr %4, align 8
  %6 = getelementptr inbounds i8, ptr %5, i64 64
  %7 = load ptr, ptr %6, align 8
  %8 = load ptr, ptr %1, align 8
  store ptr %8, ptr %3, align 8
  %9 = getelementptr inbounds i8, ptr %3, i64 8
  %10 = getelementptr inbounds i8, ptr %1, i64 8
  %11 = load ptr, ptr %10, align 8
  store ptr %11, ptr %9, align 8
  %12 = getelementptr inbounds i8, ptr %3, i64 16
  %13 = getelementptr inbounds i8, ptr %1, i64 16
  %14 = load i64, ptr %13, align 8
  store i64 %14, ptr %12, align 8
  %.not.i.i.i = icmp eq ptr %8, null
  br i1 %.not.i.i.i, label %_ZN7QStringC2ERKS_.exit, label %15

15:                                               ; preds = %2
  %16 = atomicrmw add ptr %8, i32 1 seq_cst, align 4
  br label %_ZN7QStringC2ERKS_.exit

_ZN7QStringC2ERKS_.exit:                          ; preds = %2, %15
  invoke void @_ZN14SyntaxLineEdit17checkCustomColumnE7QString(ptr noundef nonnull align 8 dereferenceable(185) %7, ptr noundef nonnull %3)
          to label %17 unwind label %34

17:                                               ; preds = %_ZN7QStringC2ERKS_.exit
  %18 = load ptr, ptr %3, align 8
  %.not.i.i.i4 = icmp eq ptr %18, null
  br i1 %.not.i.i.i4, label %_ZN7QStringD2Ev.exit, label %_ZN17QArrayDataPointerIDsE5derefEv.exit.i.i

_ZN17QArrayDataPointerIDsE5derefEv.exit.i.i:      ; preds = %17
  %19 = atomicrmw sub ptr %18, i32 1 seq_cst, align 4
  %.not.i.i = icmp eq i32 %19, 1
  br i1 %.not.i.i, label %20, label %_ZN7QStringD2Ev.exit

20:                                               ; preds = %_ZN17QArrayDataPointerIDsE5derefEv.exit.i.i
  %21 = load ptr, ptr %3, align 8
  call void @_ZN10QArrayData10deallocateEPS_xx(ptr noundef %21, i64 noundef 2, i64 noundef 8) #12
  br label %_ZN7QStringD2Ev.exit

_ZN7QStringD2Ev.exit:                             ; preds = %17, %_ZN17QArrayDataPointerIDsE5derefEv.exit.i.i, %20
  %22 = load ptr, ptr %4, align 8
  %23 = getelementptr inbounds i8, ptr %22, i64 40
  %24 = load ptr, ptr %23, align 8
  %25 = call noundef i32 @_ZNK9QComboBox12currentIndexEv(ptr noundef nonnull align 8 dereferenceable(40) %24)
  %.not = icmp eq i32 %25, 4
  br i1 %.not, label %40, label %26

26:                                               ; preds = %_ZN7QStringD2Ev.exit
  %27 = load ptr, ptr %4, align 8
  %28 = getelementptr inbounds i8, ptr %27, i64 40
  %29 = load ptr, ptr %28, align 8
  call void @_ZN9QComboBox15setCurrentIndexEi(ptr noundef nonnull align 8 dereferenceable(40) %29, i32 noundef 4)
  %30 = load ptr, ptr %4, align 8
  %31 = getelementptr inbounds i8, ptr %30, i64 88
  %32 = load ptr, ptr %31, align 8
  %33 = getelementptr inbounds i8, ptr %0, i64 96
  call void @_ZN9QLineEdit7setTextERK7QString(ptr noundef nonnull align 8 dereferenceable(40) %32, ptr noundef nonnull align 8 dereferenceable(24) %33)
  br label %40

34:                                               ; preds = %_ZN7QStringC2ERKS_.exit
  %35 = landingpad { ptr, i32 }
          cleanup
  %36 = load ptr, ptr %3, align 8
  %.not.i.i.i5 = icmp eq ptr %36, null
  br i1 %.not.i.i.i5, label %_ZN7QStringD2Ev.exit8, label %_ZN17QArrayDataPointerIDsE5derefEv.exit.i.i6

_ZN17QArrayDataPointerIDsE5derefEv.exit.i.i6:     ; preds = %34
  %37 = atomicrmw sub ptr %36, i32 1 seq_cst, align 4
  %.not.i.i7 = icmp eq i32 %37, 1
  br i1 %.not.i.i7, label %38, label %_ZN7QStringD2Ev.exit8

38:                                               ; preds = %_ZN17QArrayDataPointerIDsE5derefEv.exit.i.i6
  %39 = load ptr, ptr %3, align 8
  call void @_ZN10QArrayData10deallocateEPS_xx(ptr noundef %39, i64 noundef 2, i64 noundef 8) #12
  br label %_ZN7QStringD2Ev.exit8

_ZN7QStringD2Ev.exit8:                            ; preds = %34, %_ZN17QArrayDataPointerIDsE5derefEv.exit.i.i6, %38
  resume { ptr, i32 } %35

40:                                               ; preds = %26, %_ZN7QStringD2Ev.exit
  %41 = load ptr, ptr %4, align 8
  %42 = getelementptr inbounds i8, ptr %41, i64 112
  %43 = load ptr, ptr %42, align 8
  %44 = call noundef ptr @_ZNK16QDialogButtonBox6buttonENS_14StandardButtonE(ptr noundef nonnull align 8 dereferenceable(40) %43, i32 noundef 1024)
  %45 = load ptr, ptr %4, align 8
  %46 = getelementptr inbounds i8, ptr %45, i64 64
  %47 = load ptr, ptr %46, align 8
  %48 = getelementptr inbounds i8, ptr %47, i64 56
  %49 = load i32, ptr %48, align 8
  %50 = icmp eq i32 %49, 4
  br i1 %50, label %51, label %_ZN17ColumnEditorFrame13syntaxIsValidEv.exit

51:                                               ; preds = %40
  %52 = getelementptr inbounds i8, ptr %45, i64 88
  %53 = load ptr, ptr %52, align 8
  %54 = getelementptr inbounds i8, ptr %53, i64 56
  %55 = load i32, ptr %54, align 8
  %56 = icmp ne i32 %55, 2
  br label %_ZN17ColumnEditorFrame13syntaxIsValidEv.exit

_ZN17ColumnEditorFrame13syntaxIsValidEv.exit:     ; preds = %40, %51
  %57 = phi i1 [ false, %40 ], [ %56, %51 ]
  call void @_ZN7QWidget10setEnabledEb(ptr noundef nonnull align 8 dereferenceable(40) %44, i1 noundef zeroext %57)
  %58 = getelementptr inbounds i8, ptr %0, i64 72
  %59 = call noundef nonnull align 8 dereferenceable(24) ptr @_ZN7QStringaSERKS_(ptr noundef nonnull align 8 dereferenceable(24) %58, ptr noundef nonnull align 8 dereferenceable(24) %1) #12
  ret void
}